(lp0
(S'cppflags'
p1
ccopy_reg
_reconstructor
p2
(cino.utils
SpaceList
p3
c__builtin__
list
p4
(lp5
S'-mmcu=atmega328p'
p6
aS'-DF_CPU=16000000L'
p7
aS'-DARDUINO=105'
p8
aS'-I/usr/share/arduino/hardware/arduino/cores/arduino'
p9
aS'-ffunction-sections'
p10
aS'-fdata-sections'
p11
aS'-g'
p12
aS'-Os'
p13
aS'-w'
p14
aS'-I/usr/share/arduino/hardware/arduino/variants/standard'
p15
aS'-I/usr/share/arduino/hardware/arduino/cores/arduino'
p16
aS'-I/usr/share/arduino/hardware/arduino/cores/arduino/avr-libc'
p17
atp18
Rp19
tp20
a(S'version.txt'
p21
S'/usr/share/arduino/lib/version.txt'
p22
tp23
a(S'used_libs'
p24
(lp25
S'/usr/share/arduino/hardware/arduino/cores/arduino'
p26
atp27
a(S'cc'
p28
S'/usr/share/arduino/hardware/tools/avr/bin/avr-gcc'
p29
tp30
a(S'make'
p31
S'/usr/share/arduino/hardware/tools/avr/bin/make'
p32
tp33
a(S'build_dir'
p34
S'.build/atmega328'
p35
tp36
a(S'arduino_core_dir'
p37
g26
tp38
a(S'boards.txt'
p39
S'/usr/share/arduino/hardware/arduino/boards.txt'
p40
tp41
a(S'cxxflags'
p42
g2
(g3
g4
(lp43
S'-fno-exceptions'
p44
atp45
Rp46
tp47
a(S'arduino_variants_dir'
p48
S'/usr/share/arduino/hardware/arduino/variants'
p49
tp50
a(S'deps'
p51
g2
(g3
g4
(lp52
S'.build/atmega328/src/dependencies.d'
p53
aS'.build/atmega328/arduino/dependencies.d'
p54
atp55
Rp56
tp57
a(S'ar'
p58
S'/usr/share/arduino/hardware/tools/avr/bin/avr-ar'
p59
tp60
a(S'names'
p61
(dp62
S'cpp'
p63
S'%s.cpp'
p64
sS'obj'
p65
S'%s.o'
p66
sg51
S'%s.d'
p67
sS'lib'
p68
S'lib%s.a'
p69
stp70
a(S'cflags'
p71
g2
(g3
g4
(lp72
tp73
Rp74
tp75
a(S'ldflags'
p76
g2
(g3
g4
(lp77
g6
aS'-Wl,-Os'
p78
aS'-Wl,--gc-sections'
p79
atp80
Rp81
tp82
a(S'arduino_libraries_dir'
p83
S'/usr/share/arduino/libraries'
p84
tp85
a(S'arduino_lib_version'
p86
g2
(cino.environment
Version
p87
c__builtin__
tuple
p88
(I1
I0
I5
tp89
tp90
Rp91
tp92
a(S'objcopy'
p93
S'/usr/share/arduino/hardware/tools/avr/bin/avr-objcopy'
p94
tp95
a(S'board_models'
p96
cino.environment
BoardModels
p97
((lp98
(lp99
S'uno'
p100
a(dp101
S'build'
p102
(dp103
S'core'
p104
S'arduino'
p105
sS'mcu'
p106
S'atmega328p'
p107
sS'f_cpu'
p108
S'16000000L'
p109
sS'variant'
p110
S'standard'
p111
ssS'bootloader'
p112
(dp113
S'extended_fuses'
p114
S'0x05'
p115
sS'high_fuses'
p116
S'0xde'
p117
sS'low_fuses'
p118
S'0xff'
p119
sS'lock_bits'
p120
S'0x0F'
p121
sS'file'
p122
S'optiboot_atmega328.hex'
p123
sS'path'
p124
S'optiboot'
p125
sS'unlock_bits'
p126
S'0x3F'
p127
ssS'name'
p128
S'Arduino Uno'
p129
sS'upload'
p130
(dp131
S'speed'
p132
S'115200'
p133
sS'maximum_size'
p134
S'32256'
p135
sS'protocol'
p136
S'arduino'
p137
ssaa(lp138
S'atmega328'
p139
a(dp140
S'build'
p141
(dp142
S'core'
p143
S'arduino'
p144
sS'mcu'
p145
S'atmega328p'
p146
sS'f_cpu'
p147
S'16000000L'
p148
sS'variant'
p149
S'standard'
p150
ssS'bootloader'
p151
(dp152
S'extended_fuses'
p153
S'0x05'
p154
sS'high_fuses'
p155
S'0xDA'
p156
sS'low_fuses'
p157
S'0xFF'
p158
sS'lock_bits'
p159
S'0x0F'
p160
sS'file'
p161
S'ATmegaBOOT_168_atmega328.hex'
p162
sS'path'
p163
S'atmega'
p164
sS'unlock_bits'
p165
S'0x3F'
p166
ssS'name'
p167
S'Arduino Duemilanove w/ ATmega328'
p168
sS'upload'
p169
(dp170
S'speed'
p171
S'57600'
p172
sS'maximum_size'
p173
S'30720'
p174
sS'protocol'
p175
S'arduino'
p176
ssaa(lp177
S'diecimila'
p178
a(dp179
S'build'
p180
(dp181
S'core'
p182
S'arduino'
p183
sS'mcu'
p184
S'atmega168'
p185
sS'f_cpu'
p186
S'16000000L'
p187
sS'variant'
p188
S'standard'
p189
ssS'bootloader'
p190
(dp191
S'extended_fuses'
p192
S'0x00'
p193
sS'high_fuses'
p194
S'0xdd'
p195
sS'low_fuses'
p196
S'0xff'
p197
sS'lock_bits'
p198
S'0x0F'
p199
sS'file'
p200
S'ATmegaBOOT_168_diecimila.hex'
p201
sS'path'
p202
S'atmega'
p203
sS'unlock_bits'
p204
S'0x3F'
p205
ssS'name'
p206
S'Arduino Diecimila or Duemilanove w/ ATmega168'
p207
sS'upload'
p208
(dp209
S'speed'
p210
S'19200'
p211
sS'maximum_size'
p212
S'14336'
p213
sS'protocol'
p214
S'arduino'
p215
ssaa(lp216
S'nano328'
p217
a(dp218
S'build'
p219
(dp220
S'core'
p221
S'arduino'
p222
sS'mcu'
p223
S'atmega328p'
p224
sS'f_cpu'
p225
S'16000000L'
p226
sS'variant'
p227
S'eightanaloginputs'
p228
ssS'bootloader'
p229
(dp230
S'extended_fuses'
p231
S'0x05'
p232
sS'high_fuses'
p233
S'0xDA'
p234
sS'low_fuses'
p235
S'0xFF'
p236
sS'lock_bits'
p237
S'0x0F'
p238
sS'file'
p239
S'ATmegaBOOT_168_atmega328.hex'
p240
sS'path'
p241
S'atmega'
p242
sS'unlock_bits'
p243
S'0x3F'
p244
ssS'name'
p245
S'Arduino Nano w/ ATmega328'
p246
sS'upload'
p247
(dp248
S'speed'
p249
S'57600'
p250
sS'maximum_size'
p251
S'30720'
p252
sS'protocol'
p253
S'arduino'
p254
ssaa(lp255
S'nano'
p256
a(dp257
S'build'
p258
(dp259
S'core'
p260
S'arduino'
p261
sS'mcu'
p262
S'atmega168'
p263
sS'f_cpu'
p264
S'16000000L'
p265
sS'variant'
p266
S'eightanaloginputs'
p267
ssS'bootloader'
p268
(dp269
S'extended_fuses'
p270
S'0x00'
p271
sS'high_fuses'
p272
S'0xdd'
p273
sS'low_fuses'
p274
S'0xff'
p275
sS'lock_bits'
p276
S'0x0F'
p277
sS'file'
p278
S'ATmegaBOOT_168_diecimila.hex'
p279
sS'path'
p280
S'atmega'
p281
sS'unlock_bits'
p282
S'0x3F'
p283
ssS'name'
p284
S'Arduino Nano w/ ATmega168'
p285
sS'upload'
p286
(dp287
S'speed'
p288
S'19200'
p289
sS'maximum_size'
p290
S'14336'
p291
sS'protocol'
p292
S'arduino'
p293
ssaa(lp294
S'mega2560'
p295
a(dp296
S'build'
p297
(dp298
S'core'
p299
S'arduino'
p300
sS'mcu'
p301
S'atmega2560'
p302
sS'f_cpu'
p303
S'16000000L'
p304
sS'variant'
p305
S'mega'
p306
ssS'bootloader'
p307
(dp308
S'extended_fuses'
p309
S'0xFD'
p310
sS'high_fuses'
p311
S'0xD8'
p312
sS'low_fuses'
p313
S'0xFF'
p314
sS'lock_bits'
p315
S'0x0F'
p316
sS'file'
p317
S'stk500boot_v2_mega2560.hex'
p318
sS'path'
p319
S'stk500v2'
p320
sS'unlock_bits'
p321
S'0x3F'
p322
ssS'name'
p323
S'Arduino Mega 2560 or Mega ADK'
p324
sS'upload'
p325
(dp326
S'speed'
p327
S'115200'
p328
sS'maximum_size'
p329
S'258048'
p330
sS'protocol'
p331
S'wiring'
p332
ssaa(lp333
S'mega'
p334
a(dp335
S'build'
p336
(dp337
S'core'
p338
S'arduino'
p339
sS'mcu'
p340
S'atmega1280'
p341
sS'f_cpu'
p342
S'16000000L'
p343
sS'variant'
p344
S'mega'
p345
ssS'bootloader'
p346
(dp347
S'extended_fuses'
p348
S'0xF5'
p349
sS'high_fuses'
p350
S'0xDA'
p351
sS'low_fuses'
p352
S'0xFF'
p353
sS'lock_bits'
p354
S'0x0F'
p355
sS'file'
p356
S'ATmegaBOOT_168_atmega1280.hex'
p357
sS'path'
p358
S'atmega'
p359
sS'unlock_bits'
p360
S'0x3F'
p361
ssS'name'
p362
S'Arduino Mega (ATmega1280)'
p363
sS'upload'
p364
(dp365
S'speed'
p366
S'57600'
p367
sS'maximum_size'
p368
S'126976'
p369
sS'protocol'
p370
S'arduino'
p371
ssaa(lp372
S'leonardo'
p373
a(dp374
S'build'
p375
(dp376
S'core'
p377
S'arduino'
p378
sS'f_cpu'
p379
S'16000000L'
p380
sS'vid'
p381
S'0x2341'
p382
sS'pid'
p383
S'0x8036'
p384
sS'variant'
p385
S'leonardo'
p386
sS'mcu'
p387
S'atmega32u4'
p388
ssS'bootloader'
p389
(dp390
S'extended_fuses'
p391
S'0xcb'
p392
sS'high_fuses'
p393
S'0xd8'
p394
sS'low_fuses'
p395
S'0xff'
p396
sS'lock_bits'
p397
S'0x2F'
p398
sS'file'
p399
S'Caterina-Leonardo.hex'
p400
sS'path'
p401
S'caterina'
p402
sS'unlock_bits'
p403
S'0x3F'
p404
ssS'name'
p405
S'Arduino Leonardo'
p406
sS'upload'
p407
(dp408
S'speed'
p409
S'57600'
p410
sS'maximum_size'
p411
S'28672'
p412
sS'protocol'
p413
S'avr109'
p414
sS'disable_flushing'
p415
S'true'
p416
ssaa(lp417
S'esplora'
p418
a(dp419
S'build'
p420
(dp421
S'core'
p422
S'arduino'
p423
sS'f_cpu'
p424
S'16000000L'
p425
sS'vid'
p426
S'0x2341'
p427
sS'pid'
p428
S'0x803C'
p429
sS'variant'
p430
S'leonardo'
p431
sS'mcu'
p432
S'atmega32u4'
p433
ssS'bootloader'
p434
(dp435
S'extended_fuses'
p436
S'0xcb'
p437
sS'high_fuses'
p438
S'0xd8'
p439
sS'low_fuses'
p440
S'0xff'
p441
sS'lock_bits'
p442
S'0x2F'
p443
sS'file'
p444
S'Caterina-Esplora.hex'
p445
sS'path'
p446
S'caterina'
p447
sS'unlock_bits'
p448
S'0x3F'
p449
ssS'name'
p450
S'Arduino Esplora'
p451
sS'upload'
p452
(dp453
S'speed'
p454
S'57600'
p455
sS'maximum_size'
p456
S'28672'
p457
sS'protocol'
p458
S'avr109'
p459
sS'disable_flushing'
p460
S'true'
p461
ssaa(lp462
S'micro'
p463
a(dp464
S'build'
p465
(dp466
S'core'
p467
S'arduino'
p468
sS'f_cpu'
p469
S'16000000L'
p470
sS'vid'
p471
S'0x2341'
p472
sS'pid'
p473
S'0x8037'
p474
sS'variant'
p475
S'micro'
p476
sS'mcu'
p477
S'atmega32u4'
p478
ssS'bootloader'
p479
(dp480
S'extended_fuses'
p481
S'0xcb'
p482
sS'high_fuses'
p483
S'0xd8'
p484
sS'low_fuses'
p485
S'0xff'
p486
sS'lock_bits'
p487
S'0x2F'
p488
sS'file'
p489
S'Caterina-Micro.hex'
p490
sS'path'
p491
S'caterina'
p492
sS'unlock_bits'
p493
S'0x3F'
p494
ssS'name'
p495
S'Arduino Micro'
p496
sS'upload'
p497
(dp498
S'speed'
p499
S'57600'
p500
sS'maximum_size'
p501
S'28672'
p502
sS'protocol'
p503
S'avr109'
p504
sS'disable_flushing'
p505
S'true'
p506
ssaa(lp507
S'mini328'
p508
a(dp509
S'build'
p510
(dp511
S'core'
p512
S'arduino'
p513
sS'mcu'
p514
S'atmega328p'
p515
sS'f_cpu'
p516
S'16000000L'
p517
sS'variant'
p518
S'eightanaloginputs'
p519
ssS'bootloader'
p520
(dp521
S'extended_fuses'
p522
S'0x05'
p523
sS'high_fuses'
p524
S'0xd8'
p525
sS'low_fuses'
p526
S'0xff'
p527
sS'lock_bits'
p528
S'0x0F'
p529
sS'file'
p530
S'optiboot_atmega328-Mini.hex'
p531
sS'path'
p532
S'optiboot'
p533
sS'unlock_bits'
p534
S'0x3F'
p535
ssS'name'
p536
S'Arduino Mini w/ ATmega328'
p537
sS'upload'
p538
(dp539
S'speed'
p540
S'115200'
p541
sS'maximum_size'
p542
S'28672'
p543
sS'protocol'
p544
S'arduino'
p545
ssaa(lp546
S'mini'
p547
a(dp548
S'build'
p549
(dp550
S'core'
p551
S'arduino'
p552
sS'mcu'
p553
S'atmega168'
p554
sS'f_cpu'
p555
S'16000000L'
p556
sS'variant'
p557
S'eightanaloginputs'
p558
ssS'bootloader'
p559
(dp560
S'extended_fuses'
p561
S'0x00'
p562
sS'high_fuses'
p563
S'0xdd'
p564
sS'low_fuses'
p565
S'0xff'
p566
sS'lock_bits'
p567
S'0x0F'
p568
sS'file'
p569
S'ATmegaBOOT_168_ng.hex'
p570
sS'path'
p571
S'atmega'
p572
sS'unlock_bits'
p573
S'0x3F'
p574
ssS'name'
p575
S'Arduino Mini w/ ATmega168'
p576
sS'upload'
p577
(dp578
S'speed'
p579
S'19200'
p580
sS'maximum_size'
p581
S'14336'
p582
sS'protocol'
p583
S'arduino'
p584
ssaa(lp585
S'ethernet'
p586
a(dp587
S'build'
p588
(dp589
S'f_cpu'
p590
S'16000000L'
p591
sS'mcu'
p592
S'atmega328p'
p593
sS'variant'
p594
S'standard'
p595
sS'core'
p596
S'arduino'
p597
ssS'bootloader'
p598
(dp599
S'extended_fuses'
p600
S'0x05'
p601
sS'high_fuses'
p602
S'0xde'
p603
sS'low_fuses'
p604
S'0xff'
p605
sS'lock_bits'
p606
S'0x0F'
p607
sS'file'
p608
S'optiboot_atmega328.hex'
p609
sS'path'
p610
S'optiboot'
p611
sS'unlock_bits'
p612
S'0x3F'
p613
ssS'name'
p614
S'Arduino Ethernet'
p615
sS'upload'
p616
(dp617
S'speed'
p618
S'115200'
p619
sS'maximum_size'
p620
S'32256'
p621
sS'protocol'
p622
S'arduino'
p623
ssaa(lp624
S'fio'
p625
a(dp626
S'build'
p627
(dp628
S'core'
p629
S'arduino'
p630
sS'mcu'
p631
S'atmega328p'
p632
sS'f_cpu'
p633
S'8000000L'
p634
sS'variant'
p635
S'eightanaloginputs'
p636
ssS'bootloader'
p637
(dp638
S'extended_fuses'
p639
S'0x05'
p640
sS'high_fuses'
p641
S'0xDA'
p642
sS'low_fuses'
p643
S'0xFF'
p644
sS'lock_bits'
p645
S'0x0F'
p646
sS'file'
p647
S'ATmegaBOOT_168_atmega328_pro_8MHz.hex'
p648
sS'path'
p649
S'arduino:atmega'
p650
sS'unlock_bits'
p651
S'0x3F'
p652
ssS'name'
p653
S'Arduino Fio'
p654
sS'upload'
p655
(dp656
S'speed'
p657
S'57600'
p658
sS'maximum_size'
p659
S'30720'
p660
sS'protocol'
p661
S'arduino'
p662
ssaa(lp663
S'bt328'
p664
a(dp665
S'build'
p666
(dp667
S'core'
p668
S'arduino'
p669
sS'mcu'
p670
S'atmega328p'
p671
sS'f_cpu'
p672
S'16000000L'
p673
sS'variant'
p674
S'eightanaloginputs'
p675
ssS'bootloader'
p676
(dp677
S'extended_fuses'
p678
S'0x05'
p679
sS'high_fuses'
p680
S'0xd8'
p681
sS'low_fuses'
p682
S'0xff'
p683
sS'lock_bits'
p684
S'0x0F'
p685
sS'file'
p686
S'ATmegaBOOT_168_atmega328_bt.hex'
p687
sS'path'
p688
S'bt'
p689
sS'unlock_bits'
p690
S'0x3F'
p691
ssS'name'
p692
S'Arduino BT w/ ATmega328'
p693
sS'upload'
p694
(dp695
S'speed'
p696
S'19200'
p697
sS'maximum_size'
p698
S'28672'
p699
sS'protocol'
p700
S'arduino'
p701
sS'disable_flushing'
p702
S'true'
p703
ssaa(lp704
S'bt'
p705
a(dp706
S'build'
p707
(dp708
S'core'
p709
S'arduino'
p710
sS'mcu'
p711
S'atmega168'
p712
sS'f_cpu'
p713
S'16000000L'
p714
sS'variant'
p715
S'eightanaloginputs'
p716
ssS'bootloader'
p717
(dp718
S'extended_fuses'
p719
S'0x00'
p720
sS'high_fuses'
p721
S'0xdd'
p722
sS'low_fuses'
p723
S'0xff'
p724
sS'lock_bits'
p725
S'0x0F'
p726
sS'file'
p727
S'ATmegaBOOT_168.hex'
p728
sS'path'
p729
S'bt'
p730
sS'unlock_bits'
p731
S'0x3F'
p732
ssS'name'
p733
S'Arduino BT w/ ATmega168'
p734
sS'upload'
p735
(dp736
S'speed'
p737
S'19200'
p738
sS'maximum_size'
p739
S'14336'
p740
sS'protocol'
p741
S'arduino'
p742
sS'disable_flushing'
p743
S'true'
p744
ssaa(lp745
S'LilyPadUSB'
p746
a(dp747
S'build'
p748
(dp749
S'core'
p750
S'arduino'
p751
sS'f_cpu'
p752
S'8000000L'
p753
sS'vid'
p754
S'0x1B4F'
p755
sS'pid'
p756
S'0x9208'
p757
sS'variant'
p758
S'leonardo'
p759
sS'mcu'
p760
S'atmega32u4'
p761
ssS'bootloader'
p762
(dp763
S'extended_fuses'
p764
S'0xce'
p765
sS'high_fuses'
p766
S'0xd8'
p767
sS'low_fuses'
p768
S'0xff'
p769
sS'lock_bits'
p770
S'0x2F'
p771
sS'file'
p772
S'Caterina-LilyPadUSB.hex'
p773
sS'path'
p774
S'caterina-LilyPadUSB'
p775
sS'unlock_bits'
p776
S'0x3F'
p777
ssS'name'
p778
S'LilyPad Arduino USB'
p779
sS'upload'
p780
(dp781
S'speed'
p782
S'57600'
p783
sS'maximum_size'
p784
S'28672'
p785
sS'protocol'
p786
S'avr109'
p787
sS'disable_flushing'
p788
S'true'
p789
ssaa(lp790
S'lilypad328'
p791
a(dp792
S'build'
p793
(dp794
S'core'
p795
S'arduino'
p796
sS'mcu'
p797
S'atmega328p'
p798
sS'f_cpu'
p799
S'8000000L'
p800
sS'variant'
p801
S'standard'
p802
ssS'bootloader'
p803
(dp804
S'extended_fuses'
p805
S'0x05'
p806
sS'high_fuses'
p807
S'0xDA'
p808
sS'low_fuses'
p809
S'0xFF'
p810
sS'lock_bits'
p811
S'0x0F'
p812
sS'file'
p813
S'ATmegaBOOT_168_atmega328_pro_8MHz.hex'
p814
sS'path'
p815
S'atmega'
p816
sS'unlock_bits'
p817
S'0x3F'
p818
ssS'name'
p819
S'LilyPad Arduino w/ ATmega328'
p820
sS'upload'
p821
(dp822
S'speed'
p823
S'57600'
p824
sS'maximum_size'
p825
S'30720'
p826
sS'protocol'
p827
S'arduino'
p828
ssaa(lp829
S'lilypad'
p830
a(dp831
S'build'
p832
(dp833
S'core'
p834
S'arduino'
p835
sS'mcu'
p836
S'atmega168'
p837
sS'f_cpu'
p838
S'8000000L'
p839
sS'variant'
p840
S'standard'
p841
ssS'bootloader'
p842
(dp843
S'extended_fuses'
p844
S'0x00'
p845
sS'high_fuses'
p846
S'0xdd'
p847
sS'low_fuses'
p848
S'0xe2'
p849
sS'lock_bits'
p850
S'0x0F'
p851
sS'file'
p852
S'LilyPadBOOT_168.hex'
p853
sS'path'
p854
S'lilypad'
p855
sS'unlock_bits'
p856
S'0x3F'
p857
ssS'name'
p858
S'LilyPad Arduino w/ ATmega168'
p859
sS'upload'
p860
(dp861
S'speed'
p862
S'19200'
p863
sS'maximum_size'
p864
S'14336'
p865
sS'protocol'
p866
S'arduino'
p867
ssaa(lp868
S'pro5v328'
p869
a(dp870
S'build'
p871
(dp872
S'core'
p873
S'arduino'
p874
sS'mcu'
p875
S'atmega328p'
p876
sS'f_cpu'
p877
S'16000000L'
p878
sS'variant'
p879
S'standard'
p880
ssS'bootloader'
p881
(dp882
S'extended_fuses'
p883
S'0x05'
p884
sS'high_fuses'
p885
S'0xDA'
p886
sS'low_fuses'
p887
S'0xFF'
p888
sS'lock_bits'
p889
S'0x0F'
p890
sS'file'
p891
S'ATmegaBOOT_168_atmega328.hex'
p892
sS'path'
p893
S'atmega'
p894
sS'unlock_bits'
p895
S'0x3F'
p896
ssS'name'
p897
S'Arduino Pro or Pro Mini (5V, 16 MHz) w/ ATmega328'
p898
sS'upload'
p899
(dp900
S'speed'
p901
S'57600'
p902
sS'maximum_size'
p903
S'30720'
p904
sS'protocol'
p905
S'arduino'
p906
ssaa(lp907
S'pro5v'
p908
a(dp909
S'build'
p910
(dp911
S'core'
p912
S'arduino'
p913
sS'mcu'
p914
S'atmega168'
p915
sS'f_cpu'
p916
S'16000000L'
p917
sS'variant'
p918
S'standard'
p919
ssS'bootloader'
p920
(dp921
S'extended_fuses'
p922
S'0x00'
p923
sS'high_fuses'
p924
S'0xdd'
p925
sS'low_fuses'
p926
S'0xff'
p927
sS'lock_bits'
p928
S'0x0F'
p929
sS'file'
p930
S'ATmegaBOOT_168_diecimila.hex'
p931
sS'path'
p932
S'atmega'
p933
sS'unlock_bits'
p934
S'0x3F'
p935
ssS'name'
p936
S'Arduino Pro or Pro Mini (5V, 16 MHz) w/ ATmega168'
p937
sS'upload'
p938
(dp939
S'speed'
p940
S'19200'
p941
sS'maximum_size'
p942
S'14336'
p943
sS'protocol'
p944
S'arduino'
p945
ssaa(lp946
S'pro328'
p947
a(dp948
S'build'
p949
(dp950
S'core'
p951
S'arduino'
p952
sS'mcu'
p953
S'atmega328p'
p954
sS'f_cpu'
p955
S'8000000L'
p956
sS'variant'
p957
S'standard'
p958
ssS'bootloader'
p959
(dp960
S'extended_fuses'
p961
S'0x05'
p962
sS'high_fuses'
p963
S'0xDA'
p964
sS'low_fuses'
p965
S'0xFF'
p966
sS'lock_bits'
p967
S'0x0F'
p968
sS'file'
p969
S'ATmegaBOOT_168_atmega328_pro_8MHz.hex'
p970
sS'path'
p971
S'atmega'
p972
sS'unlock_bits'
p973
S'0x3F'
p974
ssS'name'
p975
S'Arduino Pro or Pro Mini (3.3V, 8 MHz) w/ ATmega328'
p976
sS'upload'
p977
(dp978
S'speed'
p979
S'57600'
p980
sS'maximum_size'
p981
S'30720'
p982
sS'protocol'
p983
S'arduino'
p984
ssaa(lp985
S'pro'
p986
a(dp987
S'build'
p988
(dp989
S'core'
p990
S'arduino'
p991
sS'mcu'
p992
S'atmega168'
p993
sS'f_cpu'
p994
S'8000000L'
p995
sS'variant'
p996
S'standard'
p997
ssS'bootloader'
p998
(dp999
S'extended_fuses'
p1000
S'0x00'
p1001
sS'high_fuses'
p1002
S'0xdd'
p1003
sS'low_fuses'
p1004
S'0xc6'
p1005
sS'lock_bits'
p1006
S'0x0F'
p1007
sS'file'
p1008
S'ATmegaBOOT_168_pro_8MHz.hex'
p1009
sS'path'
p1010
S'atmega'
p1011
sS'unlock_bits'
p1012
S'0x3F'
p1013
ssS'name'
p1014
S'Arduino Pro or Pro Mini (3.3V, 8 MHz) w/ ATmega168'
p1015
sS'upload'
p1016
(dp1017
S'speed'
p1018
S'19200'
p1019
sS'maximum_size'
p1020
S'14336'
p1021
sS'protocol'
p1022
S'arduino'
p1023
ssaa(lp1024
S'atmega168'
p1025
a(dp1026
S'build'
p1027
(dp1028
S'core'
p1029
S'arduino'
p1030
sS'mcu'
p1031
S'atmega168'
p1032
sS'f_cpu'
p1033
S'16000000L'
p1034
sS'variant'
p1035
S'standard'
p1036
ssS'bootloader'
p1037
(dp1038
S'extended_fuses'
p1039
S'0x00'
p1040
sS'high_fuses'
p1041
S'0xdd'
p1042
sS'low_fuses'
p1043
S'0xff'
p1044
sS'lock_bits'
p1045
S'0x0F'
p1046
sS'file'
p1047
S'ATmegaBOOT_168_ng.hex'
p1048
sS'path'
p1049
S'atmega'
p1050
sS'unlock_bits'
p1051
S'0x3F'
p1052
ssS'name'
p1053
S'Arduino NG or older w/ ATmega168'
p1054
sS'upload'
p1055
(dp1056
S'speed'
p1057
S'19200'
p1058
sS'maximum_size'
p1059
S'14336'
p1060
sS'protocol'
p1061
S'arduino'
p1062
ssaa(lp1063
S'atmega8'
p1064
a(dp1065
S'build'
p1066
(dp1067
S'core'
p1068
S'arduino'
p1069
sS'mcu'
p1070
S'atmega8'
p1071
sS'f_cpu'
p1072
S'16000000L'
p1073
sS'variant'
p1074
S'standard'
p1075
ssS'bootloader'
p1076
(dp1077
S'high_fuses'
p1078
S'0xca'
p1079
sS'low_fuses'
p1080
S'0xdf'
p1081
sS'lock_bits'
p1082
S'0x0F'
p1083
sS'file'
p1084
S'ATmegaBOOT-prod-firmware-2009-11-07.hex'
p1085
sS'path'
p1086
S'atmega8'
p1087
sS'unlock_bits'
p1088
S'0x3F'
p1089
ssS'name'
p1090
S'Arduino NG or older w/ ATmega8'
p1091
sS'upload'
p1092
(dp1093
S'speed'
p1094
S'19200'
p1095
sS'maximum_size'
p1096
S'7168'
p1097
sS'protocol'
p1098
S'arduino'
p1099
ssaa(lp1100
S'robotControl'
p1101
a(dp1102
S'build'
p1103
(dp1104
S'core'
p1105
S'robot'
p1106
sS'f_cpu'
p1107
S'16000000L'
p1108
sS'vid'
p1109
S'0x2341'
p1110
sS'pid'
p1111
S'0x8038'
p1112
sS'variant'
p1113
S'robot_control'
p1114
sS'mcu'
p1115
S'atmega32u4'
p1116
ssS'bootloader'
p1117
(dp1118
S'extended_fuses'
p1119
S'0xcb'
p1120
sS'high_fuses'
p1121
S'0xd8'
p1122
sS'low_fuses'
p1123
S'0xff'
p1124
sS'lock_bits'
p1125
S'0x2F'
p1126
sS'file'
p1127
S'Caterina-Robot-Control.hex'
p1128
sS'path'
p1129
S'caterina-Arduino_Robot'
p1130
sS'unlock_bits'
p1131
S'0x3F'
p1132
ssS'name'
p1133
S'Arduino Robot Control'
p1134
sS'upload'
p1135
(dp1136
S'speed'
p1137
S'57600'
p1138
sS'maximum_size'
p1139
S'28672'
p1140
sS'protocol'
p1141
S'avr109'
p1142
sS'disable_flushing'
p1143
S'true'
p1144
ssaa(lp1145
S'robotMotor'
p1146
a(dp1147
S'build'
p1148
(dp1149
S'core'
p1150
S'robot'
p1151
sS'f_cpu'
p1152
S'16000000L'
p1153
sS'vid'
p1154
S'0x2341'
p1155
sS'pid'
p1156
S'0x8039'
p1157
sS'variant'
p1158
S'robot_motor'
p1159
sS'mcu'
p1160
S'atmega32u4'
p1161
ssS'bootloader'
p1162
(dp1163
S'extended_fuses'
p1164
S'0xcb'
p1165
sS'high_fuses'
p1166
S'0xd8'
p1167
sS'low_fuses'
p1168
S'0xff'
p1169
sS'lock_bits'
p1170
S'0x2F'
p1171
sS'file'
p1172
S'Caterina-Robot-Motor.hex'
p1173
sS'path'
p1174
S'caterina-Arduino_Robot'
p1175
sS'unlock_bits'
p1176
S'0x3F'
p1177
ssS'name'
p1178
S'Arduino Robot Motor'
p1179
sS'upload'
p1180
(dp1181
S'speed'
p1182
S'57600'
p1183
sS'maximum_size'
p1184
S'28672'
p1185
sS'protocol'
p1186
S'avr109'
p1187
sS'disable_flushing'
p1188
S'true'
p1189
ssaatp1190
Rp1191
(dp1192
S'default'
p1193
S'uno'
p1194
sbtp1195
a(S'cxx'
p1196
S'/usr/share/arduino/hardware/tools/avr/bin/avr-g++'
p1197
tp1198
a.